; Function Attrs: mustprogress uwtable
define hidden noundef nonnull align 8 dereferenceable(8) ptr @_ZlsRSoRK6Symbol(ptr noundef nonnull returned align 8 dereferenceable(8) %0, ptr noundef nonnull readonly align 8 captures(none) dereferenceable(16) %1) local_unnamed_addr #5 {
  %3 = alloca i8, align 1
  %4 = getelementptr inbounds nuw i8, ptr %1, i64 8
  %invariant.gep = getelementptr i8, ptr %0, i64 16
  %5 = load i64, ptr %4, align 8, !tbaa !3
  %6 = and i64 %5, 1152921504338411520
  %.not = icmp eq i64 %6, 0
  br i1 %.not, label %._crit_edge, label %.lr.ph

._crit_edge:                                      ; preds = %_ZStlsISt11char_traitsIcEERSt13basic_ostreamIcT_ES5_c.exit, %2
  ret ptr %0

.lr.ph:                                           ; preds = %2, %_ZStlsISt11char_traitsIcEERSt13basic_ostreamIcT_ES5_c.exit
  %indvars.iv = phi i64 [ %indvars.iv.next, %_ZStlsISt11char_traitsIcEERSt13basic_ostreamIcT_ES5_c.exit ], [ 0, %2 ]
  %7 = getelementptr inbounds nuw [8 x i8], ptr %1, i64 0, i64 %indvars.iv
  %8 = load i8, ptr %7, align 1, !tbaa !8
  call void @llvm.lifetime.start.p0(i64 1, ptr nonnull %3)
  store i8 %8, ptr %3, align 1, !tbaa !8
  %9 = load ptr, ptr %0, align 8, !tbaa !9
  %10 = getelementptr i8, ptr %9, i64 -24
  %11 = load i64, ptr %10, align 8
  %gep = getelementptr i8, ptr %invariant.gep, i64 %11
  %12 = load i64, ptr %gep, align 8, !tbaa !11
  %.not.i = icmp eq i64 %12, 0
  br i1 %.not.i, label %15, label %13

13:                                               ; preds = %.lr.ph
  %14 = call noundef nonnull align 8 dereferenceable(8) ptr @_ZSt16__ostream_insertIcSt11char_traitsIcEERSt13basic_ostreamIT_T0_ES6_PKS3_l(ptr noundef nonnull align 8 dereferenceable(8) %0, ptr noundef nonnull %3, i64 noundef 1)
  br label %_ZStlsISt11char_traitsIcEERSt13basic_ostreamIcT_ES5_c.exit

15:                                               ; preds = %.lr.ph
  %16 = call noundef nonnull align 8 dereferenceable(8) ptr @_ZNSo3putEc(ptr noundef nonnull align 8 dereferenceable(8) %0, i8 noundef signext %8)
  br label %_ZStlsISt11char_traitsIcEERSt13basic_ostreamIcT_ES5_c.exit

_ZStlsISt11char_traitsIcEERSt13basic_ostreamIcT_ES5_c.exit: ; preds = %13, %15
  call void @llvm.lifetime.end.p0(i64 1, ptr nonnull %3)
  %indvars.iv.next = add nuw nsw i64 %indvars.iv, 1
  %17 = load i64, ptr %4, align 8, !tbaa !3
  %18 = lshr i64 %17, 28
  %19 = and i64 %18, 4294967295
  %20 = icmp samesign ult i64 %indvars.iv.next, %19
  br i1 %20, label %.lr.ph, label %._crit_edge, !llvm.loop !22
}